; Function Attrs: mustprogress uwtable
define noundef ptr @_ZNK6google8protobuf11UInt64Value18_InternalSerializeEPhPNS0_2io19EpsCopyOutputStreamE(ptr nocapture noundef nonnull readonly align 8 dereferenceable(32) %this, ptr noundef %target, ptr noundef %stream) unnamed_addr #3 align 2 {
entry:
  %0 = getelementptr inbounds i8, ptr %this, i64 16
  %1 = load i64, ptr %0, align 8
  %cmp.not = icmp eq i64 %1, 0
  br i1 %cmp.not, label %if.end, label %if.then

if.then:                                          ; preds = %entry
  %2 = load ptr, ptr %stream, align 8
  %cmp.not.i = icmp ugt ptr %2, %target
  br i1 %cmp.not.i, label %_ZN6google8protobuf2io19EpsCopyOutputStream11EnsureSpaceEPh.exit, label %if.then.i6

if.then.i6:                                       ; preds = %if.then
  %call.i7 = tail call noundef ptr @_ZN6google8protobuf2io19EpsCopyOutputStream19EnsureSpaceFallbackEPh(ptr noundef nonnull align 8 dereferenceable(60) %stream, ptr noundef %target)
  %.pr = load i64, ptr %0, align 8
  br label %_ZN6google8protobuf2io19EpsCopyOutputStream11EnsureSpaceEPh.exit

_ZN6google8protobuf2io19EpsCopyOutputStream11EnsureSpaceEPh.exit: ; preds = %if.then, %if.then.i6
  %3 = phi i64 [ %1, %if.then ], [ %.pr, %if.then.i6 ]
  %retval.0.i = phi ptr [ %target, %if.then ], [ %call.i7, %if.then.i6 ]
  %incdec.ptr2.i.i = getelementptr inbounds i8, ptr %retval.0.i, i64 1
  store i8 8, ptr %retval.0.i, align 1
  %cmp.i7.i = icmp ugt i64 %3, 127
  br i1 %cmp.i7.i, label %while.body.i.i, label %_ZN6google8protobuf2io17CodedOutputStream20WriteVarint64ToArrayEmPh.exit

while.body.i.i:                                   ; preds = %_ZN6google8protobuf2io19EpsCopyOutputStream11EnsureSpaceEPh.exit, %while.body.i.i
  %value.addr.i.09.i = phi i64 [ %shr.i.i, %while.body.i.i ], [ %3, %_ZN6google8protobuf2io19EpsCopyOutputStream11EnsureSpaceEPh.exit ]
  %ptr.addr.i.08.i = phi ptr [ %incdec.ptr.i.i, %while.body.i.i ], [ %incdec.ptr2.i.i, %_ZN6google8protobuf2io19EpsCopyOutputStream11EnsureSpaceEPh.exit ]
  %4 = trunc i64 %value.addr.i.09.i to i8
  %conv.i.i = or i8 %4, -128
  store i8 %conv.i.i, ptr %ptr.addr.i.08.i, align 1
  %shr.i.i = lshr i64 %value.addr.i.09.i, 7
  %incdec.ptr.i.i = getelementptr inbounds i8, ptr %ptr.addr.i.08.i, i64 1
  %cmp.i.i = icmp ugt i64 %value.addr.i.09.i, 16383
  br i1 %cmp.i.i, label %while.body.i.i, label %_ZN6google8protobuf2io17CodedOutputStream20WriteVarint64ToArrayEmPh.exit, !llvm.loop !4

_ZN6google8protobuf2io17CodedOutputStream20WriteVarint64ToArrayEmPh.exit: ; preds = %while.body.i.i, %_ZN6google8protobuf2io19EpsCopyOutputStream11EnsureSpaceEPh.exit
  %ptr.addr.i.0.lcssa.i = phi ptr [ %incdec.ptr2.i.i, %_ZN6google8protobuf2io19EpsCopyOutputStream11EnsureSpaceEPh.exit ], [ %incdec.ptr.i.i, %while.body.i.i ]
  %value.addr.i.0.lcssa.i = phi i64 [ %3, %_ZN6google8protobuf2io19EpsCopyOutputStream11EnsureSpaceEPh.exit ], [ %shr.i.i, %while.body.i.i ]
  %conv1.i.i = trunc i64 %value.addr.i.0.lcssa.i to i8
  %incdec.ptr2.i.i8 = getelementptr inbounds i8, ptr %ptr.addr.i.0.lcssa.i, i64 1
  store i8 %conv1.i.i, ptr %ptr.addr.i.0.lcssa.i, align 1
  br label %if.end

if.end:                                           ; preds = %_ZN6google8protobuf2io17CodedOutputStream20WriteVarint64ToArrayEmPh.exit, %entry
  %target.addr.0 = phi ptr [ %incdec.ptr2.i.i8, %_ZN6google8protobuf2io17CodedOutputStream20WriteVarint64ToArrayEmPh.exit ], [ %target, %entry ]
  %_internal_metadata_ = getelementptr inbounds i8, ptr %this, i64 8
  %5 = load i64, ptr %_internal_metadata_, align 8
  %and.i25 = and i64 %5, 1
  %tobool.i26.not = icmp eq i64 %and.i25, 0
  br i1 %tobool.i26.not, label %if.end10, label %if.then.i

if.then.i:                                        ; preds = %if.end
  %and.i = and i64 %5, -2
  %6 = inttoptr i64 %and.i to ptr
  %unknown_fields.i = getelementptr inbounds i8, ptr %6, i64 8
  %call9 = tail call noundef ptr @_ZN6google8protobuf8internal10WireFormat37InternalSerializeUnknownFieldsToArrayERKNS0_15UnknownFieldSetEPhPNS0_2io19EpsCopyOutputStreamE(ptr noundef nonnull align 8 dereferenceable(24) %unknown_fields.i, ptr noundef %target.addr.0, ptr noundef %stream)
  br label %if.end10

if.end10:                                         ; preds = %if.then.i, %if.end
  %target.addr.1 = phi ptr [ %call9, %if.then.i ], [ %target.addr.0, %if.end ]
  ret ptr %target.addr.1
}